; ModuleID = '57/3125.c'
source_filename = "57/3125.c"
target datalayout = "e-m:e-p270:32:32-p271:32:32-p272:64:64-i64:64-f80:128-n8:16:32:64-S128"
target triple = "x86_64-pc-linux-gnu"

@.str = private unnamed_addr constant [3 x i8] c"%d\00", align 1
@.str.1 = private unnamed_addr constant [3 x i8] c"%s\00", align 1
@.str.2 = private unnamed_addr constant [4 x i8] c"%s\0A\00", align 1

; Function Attrs: noinline nounwind uwtable
define dso_local i32 @main() #0 {
  %1 = alloca i32, align 4
  %2 = alloca [33 x i8], align 16
  %3 = alloca [33 x i8], align 16
  %4 = alloca i32, align 4
  %5 = alloca i32, align 4
  %6 = alloca i32, align 4
  %7 = alloca i32, align 4
  store i32 0, i32* %1, align 4
  %8 = call i32 (i8*, ...) @__isoc99_scanf(i8* getelementptr inbounds ([3 x i8], [3 x i8]* @.str, i64 0, i64 0), i32* %5)
  store i32 0, i32* %4, align 4
  br label %9

9:                                                ; preds = %133, %0
  %10 = load i32, i32* %4, align 4
  %11 = load i32, i32* %5, align 4
  %12 = icmp slt i32 %10, %11
  br i1 %12, label %13, label %136

13:                                               ; preds = %9
  %14 = getelementptr inbounds [33 x i8], [33 x i8]* %2, i64 0, i64 0
  %15 = call i32 (i8*, ...) @__isoc99_scanf(i8* getelementptr inbounds ([3 x i8], [3 x i8]* @.str.1, i64 0, i64 0), i8* %14)
  %16 = getelementptr inbounds [33 x i8], [33 x i8]* %2, i64 0, i64 0
  %17 = call i64 @strlen(i8* %16) #3
  %18 = trunc i64 %17 to i32
  store i32 %18, i32* %7, align 4
  store i32 0, i32* %6, align 4
  br label %19

19:                                               ; preds = %33, %13
  %20 = load i32, i32* %6, align 4
  %21 = sext i32 %20 to i64
  %22 = getelementptr inbounds [33 x i8], [33 x i8]* %2, i64 0, i64 %21
  %23 = load i8, i8* %22, align 1
  %24 = icmp ne i8 %23, 0
  br i1 %24, label %25, label %36

25:                                               ; preds = %19
  %26 = load i32, i32* %6, align 4
  %27 = sext i32 %26 to i64
  %28 = getelementptr inbounds [33 x i8], [33 x i8]* %2, i64 0, i64 %27
  %29 = load i8, i8* %28, align 1
  %30 = load i32, i32* %6, align 4
  %31 = sext i32 %30 to i64
  %32 = getelementptr inbounds [33 x i8], [33 x i8]* %3, i64 0, i64 %31
  store i8 %29, i8* %32, align 1
  br label %33

33:                                               ; preds = %25
  %34 = load i32, i32* %6, align 4
  %35 = add nsw i32 %34, 1
  store i32 %35, i32* %6, align 4
  br label %19

36:                                               ; preds = %19
  store i32 0, i32* %6, align 4
  br label %37

37:                                               ; preds = %127, %36
  %38 = load i32, i32* %6, align 4
  %39 = sext i32 %38 to i64
  %40 = getelementptr inbounds [33 x i8], [33 x i8]* %2, i64 0, i64 %39
  %41 = load i8, i8* %40, align 1
  %42 = icmp ne i8 %41, 0
  br i1 %42, label %43, label %130

43:                                               ; preds = %37
  %44 = load i32, i32* %6, align 4
  %45 = sext i32 %44 to i64
  %46 = getelementptr inbounds [33 x i8], [33 x i8]* %2, i64 0, i64 %45
  %47 = load i8, i8* %46, align 1
  %48 = sext i8 %47 to i32
  %49 = icmp eq i32 %48, 101
  br i1 %49, label %50, label %68

50:                                               ; preds = %43
  %51 = load i32, i32* %6, align 4
  %52 = add nsw i32 %51, 1
  %53 = sext i32 %52 to i64
  %54 = getelementptr inbounds [33 x i8], [33 x i8]* %2, i64 0, i64 %53
  %55 = load i8, i8* %54, align 1
  %56 = sext i8 %55 to i32
  %57 = icmp eq i32 %56, 114
  br i1 %57, label %58, label %68

58:                                               ; preds = %50
  %59 = load i32, i32* %6, align 4
  %60 = load i32, i32* %7, align 4
  %61 = sub nsw i32 %60, 1
  %62 = sub nsw i32 %61, 1
  %63 = icmp eq i32 %59, %62
  br i1 %63, label %64, label %68

64:                                               ; preds = %58
  %65 = load i32, i32* %6, align 4
  %66 = sext i32 %65 to i64
  %67 = getelementptr inbounds [33 x i8], [33 x i8]* %3, i64 0, i64 %66
  store i8 0, i8* %67, align 1
  br label %68

68:                                               ; preds = %64, %58, %50, %43
  %69 = load i32, i32* %6, align 4
  %70 = sext i32 %69 to i64
  %71 = getelementptr inbounds [33 x i8], [33 x i8]* %2, i64 0, i64 %70
  %72 = load i8, i8* %71, align 1
  %73 = sext i8 %72 to i32
  %74 = icmp eq i32 %73, 108
  br i1 %74, label %75, label %93

75:                                               ; preds = %68
  %76 = load i32, i32* %6, align 4
  %77 = add nsw i32 %76, 1
  %78 = sext i32 %77 to i64
  %79 = getelementptr inbounds [33 x i8], [33 x i8]* %2, i64 0, i64 %78
  %80 = load i8, i8* %79, align 1
  %81 = sext i8 %80 to i32
  %82 = icmp eq i32 %81, 121
  br i1 %82, label %83, label %93

83:                                               ; preds = %75
  %84 = load i32, i32* %6, align 4
  %85 = load i32, i32* %7, align 4
  %86 = sub nsw i32 %85, 1
  %87 = sub nsw i32 %86, 1
  %88 = icmp eq i32 %84, %87
  br i1 %88, label %89, label %93

89:                                               ; preds = %83
  %90 = load i32, i32* %6, align 4
  %91 = sext i32 %90 to i64
  %92 = getelementptr inbounds [33 x i8], [33 x i8]* %3, i64 0, i64 %91
  store i8 0, i8* %92, align 1
  br label %93

93:                                               ; preds = %89, %83, %75, %68
  %94 = load i32, i32* %6, align 4
  %95 = sext i32 %94 to i64
  %96 = getelementptr inbounds [33 x i8], [33 x i8]* %2, i64 0, i64 %95
  %97 = load i8, i8* %96, align 1
  %98 = sext i8 %97 to i32
  %99 = icmp eq i32 %98, 105
  br i1 %99, label %100, label %126

100:                                              ; preds = %93
  %101 = load i32, i32* %6, align 4
  %102 = add nsw i32 %101, 1
  %103 = sext i32 %102 to i64
  %104 = getelementptr inbounds [33 x i8], [33 x i8]* %2, i64 0, i64 %103
  %105 = load i8, i8* %104, align 1
  %106 = sext i8 %105 to i32
  %107 = icmp eq i32 %106, 110
  br i1 %107, label %108, label %126

108:                                              ; preds = %100
  %109 = load i32, i32* %6, align 4
  %110 = add nsw i32 %109, 2
  %111 = sext i32 %110 to i64
  %112 = getelementptr inbounds [33 x i8], [33 x i8]* %2, i64 0, i64 %111
  %113 = load i8, i8* %112, align 1
  %114 = sext i8 %113 to i32
  %115 = icmp eq i32 %114, 103
  br i1 %115, label %116, label %126

116:                                              ; preds = %108
  %117 = load i32, i32* %6, align 4
  %118 = load i32, i32* %7, align 4
  %119 = sub nsw i32 %118, 1
  %120 = sub nsw i32 %119, 2
  %121 = icmp eq i32 %117, %120
  br i1 %121, label %122, label %126

122:                                              ; preds = %116
  %123 = load i32, i32* %6, align 4
  %124 = sext i32 %123 to i64
  %125 = getelementptr inbounds [33 x i8], [33 x i8]* %3, i64 0, i64 %124
  store i8 0, i8* %125, align 1
  br label %126

126:                                              ; preds = %122, %116, %108, %100, %93
  br label %127

127:                                              ; preds = %126
  %128 = load i32, i32* %6, align 4
  %129 = add nsw i32 %128, 1
  store i32 %129, i32* %6, align 4
  br label %37

130:                                              ; preds = %37
  %131 = getelementptr inbounds [33 x i8], [33 x i8]* %3, i64 0, i64 0
  %132 = call i32 (i8*, ...) @printf(i8* getelementptr inbounds ([4 x i8], [4 x i8]* @.str.2, i64 0, i64 0), i8* %131)
  br label %133

133:                                              ; preds = %130
  %134 = load i32, i32* %4, align 4
  %135 = add nsw i32 %134, 1
  store i32 %135, i32* %4, align 4
  br label %9

136:                                              ; preds = %9
  ret i32 0
}

declare dso_local i32 @__isoc99_scanf(i8*, ...) #1

; Function Attrs: nounwind readonly
declare dso_local i64 @strlen(i8*) #2

declare dso_local i32 @printf(i8*, ...) #1


!llvm.module.flags = !{!0}
!llvm.ident = !{!1}

!0 = !{i32 1, !"wchar_size", i32 4}
!1 = !{!"clang version 10.0.0-4ubuntu1 "}
